(dp0
S'Captain'
p1
(dp2
S'Shoot'
p3
V2
p4
sS'Shield'
p5
V12
p6
sS'Items'
p7
(lp8
VCannon
p9
aVCannon
p10
asS'Move'
p11
V56
p12
sS'Experience'
p13
V0
p14
sS'Fight'
p15
V2
p16
sS'Morale'
p17
V4
p18
sS'Skillset'
p19
(lp20
VAim
p21
aVPierce
p22
aVReload
p23
aVAim
p24
aVPierce
p25
aVReload
p26
asS'Cost'
p27
I0
sS'Health'
p28
V12
p29
sS'Specialism'
p30
VMarksman
p31
ssS'Treasury'
p32
I170
sS'Name'
p33
V123
p34
sS'Troops'
p35
(lp36
VCombat Droid
p37
aVCombat Droid
p38
as.