(dp0
S'Captain'
p1
(dp2
S'Shoot'
p3
I2
sS'Shield'
p4
I12
sS'Items'
p5
(lp6
VBlade
p7
aVBlade
p8
aVBlade
p9
aVBlade
p10
aVCannon
p11
asS'Move'
p12
I5
sS'Experience'
p13
I0
sS'Fight'
p14
I2
sS'Morale'
p15
I4
sS'Skillset'
p16
(lp17
VAim
p18
aVAim
p19
aVAim
p20
aVAim
p21
aVSquad
p22
asS'Cost'
p23
I0
sS'Health'
p24
I12
sS'Specialism'
p25
VTactics
p26
ssS'Treasury'
p27
I453
sS'Name'
p28
V1235
p29
sS'Troops'
p30
(lp31
VLackey
p32
as.