(dp0
S'Treasury'
p1
I240
sS'Captain'
p2
(dp3
S'Shoot'
p4
I2
sS'Shield'
p5
I12
sS'Items'
p6
(lp7
VBlaster
p8
asS'Move'
p9
I5
sS'Experience'
p10
I0
sS'Fight'
p11
I2
sS'Morale'
p12
I4
sS'Skillset'
p13
(lp14
VRepair
p15
asS'Cost'
p16
I0
sS'Health'
p17
I12
sS'Specialism'
p18
VEngineering
p19
ssS'Ensign'
p20
(dp21
g4
I-1
sg5
I10
sg6
(lp22
VBlaster
p23
asg9
I7
sg10
I0
sg11
I0
sg12
I2
sg13
(lp24
VBolster
p25
asg16
I250
sg17
I8
sg18
VPsychology
p26
ssS'Name'
p27
V333
p28
sS'Troops'
p29
(lp30
s.