(dp0
S'Captain'
p1
(dp2
S'Shoot'
p3
V2
p4
sS'Shield'
p5
V12
p6
sS'Items'
p7
(lp8
VCannon
p9
aVCannon
p10
aVBlaster
p11
asS'Move'
p12
V5
p13
sS'Experience'
p14
V0
p15
sS'Fight'
p16
V2
p17
sS'Morale'
p18
V4
p19
sS'Skillset'
p20
(lp21
VAim
p22
aVPierce
p23
aVReload
p24
aVAim
p25
aVPierce
p26
aVReload
p27
aVRepair
p28
aVSabotage
p29
asS'Cost'
p30
I0
sS'Health'
p31
V12
p32
sS'Specialism'
p33
VEngineering
p34
ssS'Treasury'
p35
I395
sS'Name'
p36
Vrg
p37
sS'Troops'
p38
(lp39
VLackey
p40
aVMedic
p41
as.